target datalayout = "e-m:e-p270:32:32-p271:32:32-p272:64:64-i64:64-i128:128-f80:128-n8:16:32:64-S128"
target triple = "x86_64-pc-linux-gnu"

%struct._radius_dictionary_t = type { ptr, ptr, ptr, ptr, ptr }

@show_length = internal global i8 0, align 1
@disable_extended_attributes = internal global i8 0, align 1
@dict = internal global ptr null, align 8
@validate_authenticator = internal global i8 0, align 1
@shared_secret = internal global ptr @.str.115, align 8
@.str.59 = private unnamed_addr constant [16 x i8] c"RADIUS Protocol\00", align 1
@.str.60 = private unnamed_addr constant [7 x i8] c"RADIUS\00", align 1
@.str.61 = private unnamed_addr constant [7 x i8] c"radius\00", align 1
@proto_radius = internal global i32 0, align 4
@radius_handle = internal global ptr null, align 8
@.str.62 = private unnamed_addr constant [14 x i8] c"shared_secret\00", align 1
@.str.63 = private unnamed_addr constant [14 x i8] c"Shared Secret\00", align 1
@.str.64 = private unnamed_addr constant [104 x i8] c"Shared secret used to decode User Passwords and validate Accounting Request and Response Authenticators\00", align 1
@.str.65 = private unnamed_addr constant [23 x i8] c"validate_authenticator\00", align 1
@.str.66 = private unnamed_addr constant [49 x i8] c"Validate Authenticator and Message-Authenticator\00", align 1
@.str.67 = private unnamed_addr constant [131 x i8] c"Whether to check or not if Authenticator and Message-Authenticator are correct. You need to define shared secret for this to work.\00", align 1
@.str.68 = private unnamed_addr constant [12 x i8] c"show_length\00", align 1
@.str.69 = private unnamed_addr constant [17 x i8] c"Show AVP Lengths\00", align 1
@.str.70 = private unnamed_addr constant [59 x i8] c"Whether to add or not to the tree the AVP's payload length\00", align 1
@.str.71 = private unnamed_addr constant [28 x i8] c"disable_extended_attributes\00", align 1
@.str.72 = private unnamed_addr constant [44 x i8] c"Disable extended attribute space (RFC 6929)\00", align 1
@.str.73 = private unnamed_addr constant [74 x i8] c"Whether to interpret 241-246 as extended attributes according to RFC 6929\00", align 1
@.str.74 = private unnamed_addr constant [12 x i8] c"request_ttl\00", align 1
@radius_tap = internal global i32 0, align 4
@radius_calls = internal global ptr null, align 8

; Function Attrs: null_pointer_is_valid sspstrong uwtable
define hidden void @proto_register_radius() #0 {
  %1 = alloca ptr, align 8
  %2 = alloca i64, align 8
  %3 = alloca i64, align 8
  %4 = alloca ptr, align 8
  %5 = alloca ptr, align 8
  call void @llvm.lifetime.start.p0(i64 8, ptr %1) #17
  %6 = call i32 @proto_register_protocol(ptr noundef @.str.59, ptr noundef @.str.60, ptr noundef @.str.61)
  store i32 %6, ptr @proto_radius, align 4
  %7 = load i32, ptr @proto_radius, align 4
  %8 = call ptr @register_dissector(ptr noundef @.str.61, ptr noundef @dissect_radius, i32 noundef %7)
  store ptr %8, ptr @radius_handle, align 8
  call void @register_init_routine(ptr noundef @radius_init_protocol)
  call void @register_shutdown_routine(ptr noundef @radius_shutdown)
  %9 = load i32, ptr @proto_radius, align 4
  %10 = call ptr @prefs_register_protocol(i32 noundef %9, ptr noundef null)
  store ptr %10, ptr %1, align 8
  %11 = load ptr, ptr %1, align 8
  call void @prefs_register_string_preference(ptr noundef %11, ptr noundef @.str.62, ptr noundef @.str.63, ptr noundef @.str.64, ptr noundef @shared_secret)
  %12 = load ptr, ptr %1, align 8
  call void @prefs_register_bool_preference(ptr noundef %12, ptr noundef @.str.65, ptr noundef @.str.66, ptr noundef @.str.67, ptr noundef @validate_authenticator)
  %13 = load ptr, ptr %1, align 8
  call void @prefs_register_bool_preference(ptr noundef %13, ptr noundef @.str.68, ptr noundef @.str.69, ptr noundef @.str.70, ptr noundef @show_length)
  %14 = load ptr, ptr %1, align 8
  call void @prefs_register_bool_preference(ptr noundef %14, ptr noundef @.str.71, ptr noundef @.str.72, ptr noundef @.str.73, ptr noundef @disable_extended_attributes)
  %15 = load ptr, ptr %1, align 8
  call void @prefs_register_obsolete_preference(ptr noundef %15, ptr noundef @.str.74)
  %16 = call i32 @register_tap(ptr noundef @.str.61)
  store i32 %16, ptr @radius_tap, align 4
  call void @proto_register_prefix(ptr noundef @.str.61, ptr noundef @register_radius_fields)
  call void @llvm.lifetime.start.p0(i64 8, ptr %2) #17
  store i64 1, ptr %2, align 8
  call void @llvm.lifetime.start.p0(i64 8, ptr %3) #17
  store i64 40, ptr %3, align 8
  call void @llvm.lifetime.start.p0(i64 8, ptr %4) #17
  %17 = load i64, ptr %3, align 8
  %18 = icmp eq i64 %17, 1
  br i1 %18, label %19, label %22

19:                                               ; preds = %0
  %20 = load i64, ptr %2, align 8
  %21 = call noalias ptr @g_malloc(i64 noundef %20) #19
  store ptr %21, ptr %4, align 8
  br label %43

22:                                               ; preds = %0
  %23 = load i64, ptr %2, align 8
  %24 = call i1 @llvm.is.constant.i64(i64 %23)
  br i1 %24, label %25, label %38

25:                                               ; preds = %22
  %26 = load i64, ptr %3, align 8
  %27 = icmp eq i64 %26, 0
  br i1 %27, label %33, label %28

28:                                               ; preds = %25
  %29 = load i64, ptr %2, align 8
  %30 = load i64, ptr %3, align 8
  %31 = udiv i64 -1, %30
  %32 = icmp ule i64 %29, %31
  br i1 %32, label %33, label %38

33:                                               ; preds = %28, %25
  %34 = load i64, ptr %2, align 8
  %35 = load i64, ptr %3, align 8
  %36 = mul i64 %34, %35
  %37 = call noalias ptr @g_malloc(i64 noundef %36) #19
  store ptr %37, ptr %4, align 8
  br label %42

38:                                               ; preds = %28, %22
  %39 = load i64, ptr %2, align 8
  %40 = load i64, ptr %3, align 8
  %41 = call noalias ptr @g_malloc_n(i64 noundef %39, i64 noundef %40) #20
  store ptr %41, ptr %4, align 8
  br label %42

42:                                               ; preds = %38, %33
  br label %43

43:                                               ; preds = %42, %19
  %44 = load ptr, ptr %4, align 8
  store ptr %44, ptr %5, align 8
  call void @llvm.lifetime.end.p0(i64 8, ptr %4) #17
  call void @llvm.lifetime.end.p0(i64 8, ptr %3) #17
  call void @llvm.lifetime.end.p0(i64 8, ptr %2) #17
  %45 = load ptr, ptr %5, align 8
  store ptr %45, ptr @dict, align 8
  %46 = call ptr @g_hash_table_new_full(ptr noundef @g_direct_hash, ptr noundef @g_direct_equal, ptr noundef null, ptr noundef @free_radius_attr_info)
  %47 = load ptr, ptr @dict, align 8
  %48 = getelementptr inbounds nuw %struct._radius_dictionary_t, ptr %47, i32 0, i32 0
  store ptr %46, ptr %48, align 8
  %49 = call ptr @g_hash_table_new(ptr noundef @g_str_hash, ptr noundef @g_str_equal)
  %50 = load ptr, ptr @dict, align 8
  %51 = getelementptr inbounds nuw %struct._radius_dictionary_t, ptr %50, i32 0, i32 1
  store ptr %49, ptr %51, align 8
  %52 = call ptr @g_hash_table_new_full(ptr noundef @g_direct_hash, ptr noundef @g_direct_equal, ptr noundef null, ptr noundef @free_radius_vendor_info)
  %53 = load ptr, ptr @dict, align 8
  %54 = getelementptr inbounds nuw %struct._radius_dictionary_t, ptr %53, i32 0, i32 2
  store ptr %52, ptr %54, align 8
  %55 = call ptr @g_hash_table_new(ptr noundef @g_str_hash, ptr noundef @g_str_equal)
  %56 = load ptr, ptr @dict, align 8
  %57 = getelementptr inbounds nuw %struct._radius_dictionary_t, ptr %56, i32 0, i32 3
  store ptr %55, ptr %57, align 8
  %58 = call ptr @g_hash_table_new(ptr noundef @g_str_hash, ptr noundef @g_str_equal)
  %59 = load ptr, ptr @dict, align 8
  %60 = getelementptr inbounds nuw %struct._radius_dictionary_t, ptr %59, i32 0, i32 4
  store ptr %58, ptr %60, align 8
  %61 = call ptr @wmem_epan_scope()
  %62 = call ptr @wmem_file_scope()
  %63 = call noalias ptr @wmem_map_new_autoreset(ptr noundef %61, ptr noundef %62, ptr noundef @radius_call_hash, ptr noundef @radius_call_equal)
  store ptr %63, ptr @radius_calls, align 8
  %64 = load i32, ptr @proto_radius, align 4
  call void @register_rtd_table(i32 noundef %64, ptr noundef null, i32 noundef 11, i32 noundef 1, ptr noundef @radius_message_code, ptr noundef @radiusstat_packet, ptr noundef null)
  call void @llvm.lifetime.end.p0(i64 8, ptr %1) #17
  ret void
}