; Function Attrs: null_pointer_is_valid sspstrong uwtable
define hidden void @proto_register_radius() local_unnamed_addr #0 {
  %1 = tail call i32 @proto_register_protocol(ptr noundef nonnull @.str.59, ptr noundef nonnull @.str.60, ptr noundef nonnull @.str.61)
  store i32 %1, ptr @proto_radius, align 4
  %2 = tail call ptr @register_dissector(ptr noundef nonnull @.str.61, ptr noundef nonnull @dissect_radius, i32 noundef %1)
  store ptr %2, ptr @radius_handle, align 8
  tail call void @register_init_routine(ptr noundef nonnull @radius_init_protocol)
  tail call void @register_shutdown_routine(ptr noundef nonnull @radius_shutdown)
  %3 = load i32, ptr @proto_radius, align 4
  %4 = tail call ptr @prefs_register_protocol(i32 noundef %3, ptr noundef null)
  tail call void @prefs_register_string_preference(ptr noundef %4, ptr noundef nonnull @.str.62, ptr noundef nonnull @.str.63, ptr noundef nonnull @.str.64, ptr noundef nonnull @shared_secret)
  tail call void @prefs_register_bool_preference(ptr noundef %4, ptr noundef nonnull @.str.65, ptr noundef nonnull @.str.66, ptr noundef nonnull @.str.67, ptr noundef nonnull @validate_authenticator)
  tail call void @prefs_register_bool_preference(ptr noundef %4, ptr noundef nonnull @.str.68, ptr noundef nonnull @.str.69, ptr noundef nonnull @.str.70, ptr noundef nonnull @show_length)
  tail call void @prefs_register_bool_preference(ptr noundef %4, ptr noundef nonnull @.str.71, ptr noundef nonnull @.str.72, ptr noundef nonnull @.str.73, ptr noundef nonnull @disable_extended_attributes)
  tail call void @prefs_register_obsolete_preference(ptr noundef %4, ptr noundef nonnull @.str.74)
  %5 = tail call i32 @register_tap(ptr noundef nonnull @.str.61)
  store i32 %5, ptr @radius_tap, align 4
  tail call void @proto_register_prefix(ptr noundef nonnull @.str.61, ptr noundef nonnull @register_radius_fields)
  %6 = tail call noalias dereferenceable_or_null(40) ptr @g_malloc(i64 noundef 40) #16
  store ptr %6, ptr @dict, align 8
  %7 = tail call ptr @g_hash_table_new_full(ptr noundef nonnull @g_direct_hash, ptr noundef nonnull @g_direct_equal, ptr noundef null, ptr noundef nonnull @free_radius_attr_info)
  %8 = load ptr, ptr @dict, align 8
  store ptr %7, ptr %8, align 8
  %9 = tail call ptr @g_hash_table_new(ptr noundef nonnull @g_str_hash, ptr noundef nonnull @g_str_equal)
  %10 = load ptr, ptr @dict, align 8
  %11 = getelementptr inbounds nuw i8, ptr %10, i64 8
  store ptr %9, ptr %11, align 8
  %12 = tail call ptr @g_hash_table_new_full(ptr noundef nonnull @g_direct_hash, ptr noundef nonnull @g_direct_equal, ptr noundef null, ptr noundef nonnull @free_radius_vendor_info)
  %13 = load ptr, ptr @dict, align 8
  %14 = getelementptr inbounds nuw i8, ptr %13, i64 16
  store ptr %12, ptr %14, align 8
  %15 = tail call ptr @g_hash_table_new(ptr noundef nonnull @g_str_hash, ptr noundef nonnull @g_str_equal)
  %16 = load ptr, ptr @dict, align 8
  %17 = getelementptr inbounds nuw i8, ptr %16, i64 24
  store ptr %15, ptr %17, align 8
  %18 = tail call ptr @g_hash_table_new(ptr noundef nonnull @g_str_hash, ptr noundef nonnull @g_str_equal)
  %19 = load ptr, ptr @dict, align 8
  %20 = getelementptr inbounds nuw i8, ptr %19, i64 32
  store ptr %18, ptr %20, align 8
  %21 = tail call ptr @wmem_epan_scope()
  %22 = tail call ptr @wmem_file_scope()
  %23 = tail call noalias ptr @wmem_map_new_autoreset(ptr noundef %21, ptr noundef %22, ptr noundef nonnull @radius_call_hash, ptr noundef nonnull @radius_call_equal)
  store ptr %23, ptr @radius_calls, align 8
  %24 = load i32, ptr @proto_radius, align 4
  tail call void @register_rtd_table(i32 noundef %24, ptr noundef null, i32 noundef 11, i32 noundef 1, ptr noundef nonnull @radius_message_code, ptr noundef nonnull @radiusstat_packet, ptr noundef null)
  ret void
}